target datalayout = "e-m:e-p270:32:32-p271:32:32-p272:64:64-i64:64-i128:128-f80:128-n8:16:32:64-S128"
target triple = "x86_64-pc-linux-gnu"

@.str.5 = private unnamed_addr constant [1 x i8] zeroinitializer, align 1
@.str.85 = private unnamed_addr constant [39 x i8] c"plugins/lighttable/tagging/recent_tags\00", align 1
@.str.86 = private unnamed_addr constant [4 x i8] c"','\00", align 1
@.str.88 = private unnamed_addr constant [42 x i8] c"plugins/lighttable/tagging/nb_recent_tags\00", align 1

; Function Attrs: nounwind uwtable
define internal i32 @_get_recent_tags_list_length() #0 {
  %1 = alloca i32, align 4
  %2 = alloca i32, align 4
  %3 = alloca i32, align 4
  call void @llvm.lifetime.start.p0(i64 4, ptr %2) #11
  %4 = call i32 @dt_conf_get_int(ptr noundef @.str.88)
  store i32 %4, ptr %2, align 4, !tbaa !31
  %5 = load i32, ptr %2, align 4, !tbaa !31
  %6 = icmp eq i32 %5, -1
  br i1 %6, label %7, label %9

7:                                                ; preds = %0
  %8 = load i32, ptr %2, align 4, !tbaa !31
  store i32 %8, ptr %1, align 4
  store i32 1, ptr %3, align 4
  br label %16

9:                                                ; preds = %0
  %10 = load i32, ptr %2, align 4, !tbaa !31
  %11 = icmp sge i32 %10, 5
  br i1 %11, label %12, label %15

12:                                               ; preds = %9
  %13 = load i32, ptr %2, align 4, !tbaa !31
  %14 = mul nsw i32 %13, 2
  store i32 %14, ptr %1, align 4
  store i32 1, ptr %3, align 4
  br label %16

15:                                               ; preds = %9
  store i32 10, ptr %1, align 4
  store i32 1, ptr %3, align 4
  br label %16

16:                                               ; preds = %15, %12, %7
  call void @llvm.lifetime.end.p0(i64 4, ptr %2) #11
  %17 = load i32, ptr %1, align 4
  ret i32 %17
}

; Function Attrs: nounwind uwtable
define internal void @_size_recent_tags_list() #0 {
  %1 = alloca ptr, align 8
  %2 = alloca i32, align 4
  %3 = alloca i32, align 4
  %4 = alloca ptr, align 8
  %5 = alloca i32, align 4
  %6 = alloca ptr, align 8
  call void @llvm.lifetime.start.p0(i64 8, ptr %1) #11
  %7 = call ptr @dt_conf_get_string_const(ptr noundef @.str.85)
  store ptr %7, ptr %1, align 8, !tbaa !49
  %8 = load ptr, ptr %1, align 8, !tbaa !49
  %9 = getelementptr inbounds i8, ptr %8, i64 0
  %10 = load i8, ptr %9, align 1, !tbaa !52
  %11 = icmp ne i8 %10, 0
  br i1 %11, label %13, label %12

12:                                               ; preds = %0
  store i32 1, ptr %2, align 4
  br label %66

13:                                               ; preds = %0
  call void @llvm.lifetime.start.p0(i64 4, ptr %3) #11
  %14 = call i32 @_get_recent_tags_list_length()
  store i32 %14, ptr %3, align 4, !tbaa !31
  %15 = load i32, ptr %3, align 4, !tbaa !31
  %16 = icmp eq i32 %15, -1
  br i1 %16, label %17, label %18

17:                                               ; preds = %13
  call void @dt_conf_set_string(ptr noundef @.str.85, ptr noundef @.str.5)
  store i32 1, ptr %2, align 4
  br label %65

18:                                               ; preds = %13
  call void @llvm.lifetime.start.p0(i64 8, ptr %4) #11
  %19 = load ptr, ptr %1, align 8, !tbaa !49
  store ptr %19, ptr %4, align 8, !tbaa !49
  call void @llvm.lifetime.start.p0(i64 4, ptr %5) #11
  store i32 1, ptr %5, align 4, !tbaa !31
  br label %20

20:                                               ; preds = %34, %18
  %21 = load ptr, ptr %4, align 8, !tbaa !49
  %22 = load i8, ptr %21, align 1, !tbaa !52
  %23 = sext i8 %22 to i32
  %24 = icmp ne i32 %23, 0
  br i1 %24, label %25, label %37

25:                                               ; preds = %20
  %26 = load ptr, ptr %4, align 8, !tbaa !49
  %27 = load i8, ptr %26, align 1, !tbaa !52
  %28 = sext i8 %27 to i32
  %29 = icmp eq i32 %28, 44
  br i1 %29, label %30, label %33

30:                                               ; preds = %25
  %31 = load i32, ptr %5, align 4, !tbaa !31
  %32 = add nsw i32 %31, 1
  store i32 %32, ptr %5, align 4, !tbaa !31
  br label %33

33:                                               ; preds = %30, %25
  br label %34

34:                                               ; preds = %33
  %35 = load ptr, ptr %4, align 8, !tbaa !49
  %36 = getelementptr inbounds nuw i8, ptr %35, i32 1
  store ptr %36, ptr %4, align 8, !tbaa !49
  br label %20

37:                                               ; preds = %20
  %38 = load i32, ptr %5, align 4, !tbaa !31
  %39 = load i32, ptr %3, align 4, !tbaa !31
  %40 = icmp sgt i32 %38, %39
  br i1 %40, label %41, label %64

41:                                               ; preds = %37
  %42 = load i32, ptr %3, align 4, !tbaa !31
  %43 = load i32, ptr %5, align 4, !tbaa !31
  %44 = sub nsw i32 %43, %42
  store i32 %44, ptr %5, align 4, !tbaa !31
  call void @llvm.lifetime.start.p0(i64 8, ptr %6) #11
  %45 = load ptr, ptr %1, align 8, !tbaa !49
  %46 = call noalias ptr @g_strdup(ptr noundef %45)
  store ptr %46, ptr %6, align 8, !tbaa !49
  br label %47

47:                                               ; preds = %58, %41
  %48 = load i32, ptr %5, align 4, !tbaa !31
  %49 = icmp sgt i32 %48, 0
  br i1 %49, label %50, label %61

50:                                               ; preds = %47
  %51 = load ptr, ptr %6, align 8, !tbaa !49
  %52 = call ptr @g_strrstr(ptr noundef %51, ptr noundef @.str.86)
  store ptr %52, ptr %4, align 8, !tbaa !49
  %53 = load ptr, ptr %4, align 8, !tbaa !49
  %54 = icmp ne ptr %53, null
  br i1 %54, label %55, label %57

55:                                               ; preds = %50
  %56 = load ptr, ptr %4, align 8, !tbaa !49
  store i8 0, ptr %56, align 1, !tbaa !52
  br label %57

57:                                               ; preds = %55, %50
  br label %58

58:                                               ; preds = %57
  %59 = load i32, ptr %5, align 4, !tbaa !31
  %60 = add nsw i32 %59, -1
  store i32 %60, ptr %5, align 4, !tbaa !31
  br label %47

61:                                               ; preds = %47
  %62 = load ptr, ptr %6, align 8, !tbaa !49
  call void @dt_conf_set_string(ptr noundef @.str.85, ptr noundef %62)
  %63 = load ptr, ptr %6, align 8, !tbaa !49
  call void @g_free(ptr noundef %63)
  call void @llvm.lifetime.end.p0(i64 8, ptr %6) #11
  br label %64

64:                                               ; preds = %61, %37
  call void @llvm.lifetime.end.p0(i64 4, ptr %5) #11
  call void @llvm.lifetime.end.p0(i64 8, ptr %4) #11
  store i32 0, ptr %2, align 4
  br label %65

65:                                               ; preds = %64, %17
  call void @llvm.lifetime.end.p0(i64 4, ptr %3) #11
  br label %66

66:                                               ; preds = %65, %12
  call void @llvm.lifetime.end.p0(i64 8, ptr %1) #11
  %67 = load i32, ptr %2, align 4
  switch i32 %67, label %69 [
    i32 0, label %68
    i32 1, label %68
  ]

68:                                               ; preds = %66, %66
  ret void

69:                                               ; preds = %66
  unreachable
}