; Function Attrs: nounwind uwtable
define internal fastcc void @_size_recent_tags_list() unnamed_addr #1 {
  %1 = tail call ptr @dt_conf_get_string_const(ptr noundef nonnull @.str.85) #16
  %2 = load i8, ptr %1, align 1, !tbaa !40
  %.not = icmp eq i8 %2, 0
  br i1 %.not, label %24, label %3

3:                                                ; preds = %0
  %4 = tail call i32 @dt_conf_get_int(ptr noundef nonnull @.str.88) #16
  %5 = icmp eq i32 %4, -1
  %6 = tail call i32 @llvm.smax.i32(i32 %4, i32 5)
  %spec.select.i = shl nuw i32 %6, 1
  %.0.i = select i1 %5, i32 -1, i32 %spec.select.i
  br i1 %5, label %7, label %.preheader

7:                                                ; preds = %3
  tail call void @dt_conf_set_string(ptr noundef nonnull @.str.85, ptr noundef nonnull @.str.5) #16
  br label %24

.preheader:                                       ; preds = %3, %11
  %.018 = phi ptr [ %12, %11 ], [ %1, %3 ]
  %.0 = phi i32 [ %.1, %11 ], [ 1, %3 ]
  %8 = load i8, ptr %.018, align 1, !tbaa !40
  switch i8 %8, label %11 [
    i8 0, label %13
    i8 44, label %9
  ]

9:                                                ; preds = %.preheader
  %10 = add nsw i32 %.0, 1
  br label %11

11:                                               ; preds = %.preheader, %9
  %.1 = phi i32 [ %10, %9 ], [ %.0, %.preheader ]
  %12 = getelementptr inbounds nuw i8, ptr %.018, i64 1
  br label %.preheader

13:                                               ; preds = %.preheader
  %14 = icmp sgt i32 %.0, %.0.i
  br i1 %14, label %15, label %24

15:                                               ; preds = %13
  %16 = sub nsw i32 %.0, %.0.i
  %17 = tail call noalias ptr @g_strdup(ptr noundef nonnull %1) #16
  %18 = icmp sgt i32 %16, 0
  br i1 %18, label %.lr.ph, label %._crit_edge

.lr.ph:                                           ; preds = %15, %21
  %.224 = phi i32 [ %22, %21 ], [ %16, %15 ]
  %19 = tail call ptr @g_strrstr(ptr noundef %17, ptr noundef nonnull @.str.86) #16
  %.not23 = icmp eq ptr %19, null
  br i1 %.not23, label %21, label %20

20:                                               ; preds = %.lr.ph
  store i8 0, ptr %19, align 1, !tbaa !40
  br label %21

21:                                               ; preds = %.lr.ph, %20
  %22 = add nsw i32 %.224, -1
  %23 = icmp sgt i32 %.224, 1
  br i1 %23, label %.lr.ph, label %._crit_edge

._crit_edge:                                      ; preds = %21, %15
  tail call void @dt_conf_set_string(ptr noundef nonnull @.str.85, ptr noundef %17) #16
  tail call void @g_free(ptr noundef %17) #16
  br label %24

24:                                               ; preds = %7, %._crit_edge, %13, %0
  ret void
}